target datalayout = "e-m:e-p270:32:32-p271:32:32-p272:64:64-i64:64-i128:128-f80:128-n8:16:32:64-S128"
target triple = "x86_64-pc-linux-gnu"

@_ZL6libegl = internal global ptr null, align 8
@_ZL19gl_get_proc_address = internal global ptr null, align 8
@_ZL5libgl = internal global ptr null, align 8

; Function Attrs: mustprogress uwtable
define internal noundef ptr @_ZL8get_procPKc(ptr noundef %0) #0 {
  %2 = alloca ptr, align 8
  %3 = alloca ptr, align 8
  store ptr %0, ptr %2, align 8, !tbaa !10
  call void @llvm.lifetime.start.p0(i64 8, ptr %3) #11
  store ptr null, ptr %3, align 8, !tbaa !8
  %4 = load ptr, ptr @_ZL6libegl, align 8, !tbaa !8
  %5 = icmp ne ptr %4, null
  br i1 %5, label %6, label %10

6:                                                ; preds = %1
  %7 = load ptr, ptr @_ZL5libgl, align 8, !tbaa !8
  %8 = load ptr, ptr %2, align 8, !tbaa !10
  %9 = call ptr @dlsym(ptr noundef %7, ptr noundef %8) #11
  store ptr %9, ptr %3, align 8, !tbaa !8
  br label %10

10:                                               ; preds = %6, %1
  %11 = load ptr, ptr %3, align 8, !tbaa !8
  %12 = icmp ne ptr %11, null
  br i1 %12, label %17, label %13

13:                                               ; preds = %10
  %14 = load ptr, ptr @_ZL19gl_get_proc_address, align 8, !tbaa !8
  %15 = load ptr, ptr %2, align 8, !tbaa !10
  %16 = call noundef ptr %14(ptr noundef %15)
  store ptr %16, ptr %3, align 8, !tbaa !8
  br label %17

17:                                               ; preds = %13, %10
  %18 = load ptr, ptr @_ZL6libegl, align 8, !tbaa !8
  %19 = icmp ne ptr %18, null
  br i1 %19, label %27, label %20

20:                                               ; preds = %17
  %21 = load ptr, ptr %3, align 8, !tbaa !8
  %22 = icmp ne ptr %21, null
  br i1 %22, label %27, label %23

23:                                               ; preds = %20
  %24 = load ptr, ptr @_ZL5libgl, align 8, !tbaa !8
  %25 = load ptr, ptr %2, align 8, !tbaa !10
  %26 = call ptr @dlsym(ptr noundef %24, ptr noundef %25) #11
  store ptr %26, ptr %3, align 8, !tbaa !8
  br label %27

27:                                               ; preds = %23, %20, %17
  %28 = load ptr, ptr %3, align 8, !tbaa !8
  call void @llvm.lifetime.end.p0(i64 8, ptr %3) #11
  ret ptr %28
}

; Function Attrs: mustprogress uwtable
define dso_local ptr @imgl3wGetProcAddress(ptr noundef %0) #0 {
  %2 = alloca ptr, align 8
  store ptr %0, ptr %2, align 8, !tbaa !10
  %3 = load ptr, ptr %2, align 8, !tbaa !10
  %4 = call noundef ptr @_ZL8get_procPKc(ptr noundef %3)
  ret ptr %4
}