; Function Attrs: mustprogress uwtable
define dso_local ptr @imgl3wGetProcAddress(ptr noundef %0) local_unnamed_addr #0 {
  %2 = load ptr, ptr @_ZL6libegl, align 8, !tbaa !4
  %.not.i = icmp eq ptr %2, null
  br i1 %.not.i, label %.thread.i, label %3

3:                                                ; preds = %1
  %4 = load ptr, ptr @_ZL5libgl, align 8, !tbaa !4
  %5 = tail call ptr @dlsym(ptr noundef %4, ptr noundef %0) #17
  %.not7.i = icmp eq ptr %5, null
  br i1 %.not7.i, label %.thread.i, label %_ZL8get_procPKc.exit

.thread.i:                                        ; preds = %3, %1
  %6 = load ptr, ptr @_ZL19gl_get_proc_address, align 8, !tbaa !4
  %7 = tail call noundef ptr %6(ptr noundef %0)
  %8 = load ptr, ptr @_ZL6libegl, align 8, !tbaa !4
  %9 = icmp ne ptr %8, null
  %10 = icmp ne ptr %7, null
  %or.cond.i = or i1 %10, %9
  br i1 %or.cond.i, label %_ZL8get_procPKc.exit, label %11

11:                                               ; preds = %.thread.i
  %12 = load ptr, ptr @_ZL5libgl, align 8, !tbaa !4
  %13 = tail call ptr @dlsym(ptr noundef %12, ptr noundef %0) #17
  br label %_ZL8get_procPKc.exit

_ZL8get_procPKc.exit:                             ; preds = %3, %.thread.i, %11
  %.2.i = phi ptr [ %7, %.thread.i ], [ %13, %11 ], [ %5, %3 ]
  ret ptr %.2.i
}